; Function Attrs: mustprogress nounwind sspstrong willreturn uwtable
define void @_ZN4FLAC8Metadata13VorbisComment5Entry11parse_fieldEv(ptr nocapture noundef nonnull align 8 dereferenceable(60) %this) local_unnamed_addr #14 align 2 {
entry:
  %field_name_.i = getelementptr inbounds i8, ptr %this, i64 32
  %0 = load ptr, ptr %field_name_.i, align 8
  %cmp.not.i = icmp eq ptr %0, null
  br i1 %cmp.not.i, label %_ZN4FLAC8Metadata13VorbisComment5Entry16clear_field_nameEv.exit, label %if.then.i

if.then.i:                                        ; preds = %entry
  tail call void @free(ptr noundef nonnull %0) #20
  store ptr null, ptr %field_name_.i, align 8
  %field_name_length_.i = getelementptr inbounds i8, ptr %this, i64 40
  store i32 0, ptr %field_name_length_.i, align 8
  br label %_ZN4FLAC8Metadata13VorbisComment5Entry16clear_field_nameEv.exit

_ZN4FLAC8Metadata13VorbisComment5Entry16clear_field_nameEv.exit: ; preds = %entry, %if.then.i
  %field_value_.i = getelementptr inbounds i8, ptr %this, i64 48
  %1 = load ptr, ptr %field_value_.i, align 8
  %cmp.not.i3 = icmp eq ptr %1, null
  br i1 %cmp.not.i3, label %_ZN4FLAC8Metadata13VorbisComment5Entry17clear_field_valueEv.exit, label %if.then.i4

if.then.i4:                                       ; preds = %_ZN4FLAC8Metadata13VorbisComment5Entry16clear_field_nameEv.exit
  tail call void @free(ptr noundef nonnull %1) #20
  store ptr null, ptr %field_value_.i, align 8
  %field_value_length_.i = getelementptr inbounds i8, ptr %this, i64 56
  store i32 0, ptr %field_value_length_.i, align 8
  br label %_ZN4FLAC8Metadata13VorbisComment5Entry17clear_field_valueEv.exit

_ZN4FLAC8Metadata13VorbisComment5Entry17clear_field_valueEv.exit: ; preds = %_ZN4FLAC8Metadata13VorbisComment5Entry16clear_field_nameEv.exit, %if.then.i4
  %entry_ = getelementptr inbounds i8, ptr %this, i64 16
  %entry2 = getelementptr inbounds i8, ptr %this, i64 24
  %2 = load ptr, ptr %entry2, align 8
  %3 = load i32, ptr %entry_, align 8
  %conv = zext i32 %3 to i64
  %call = tail call noundef ptr @memchr(ptr noundef %2, i32 noundef 61, i64 noundef %conv) #24
  %cmp = icmp eq ptr %call, null
  %add.ptr = getelementptr inbounds i8, ptr %2, i64 %conv
  %spec.select = select i1 %cmp, ptr %add.ptr, ptr %call
  %sub.ptr.lhs.cast = ptrtoint ptr %spec.select to i64
  %sub.ptr.rhs.cast = ptrtoint ptr %2 to i64
  %sub.ptr.sub = sub i64 %sub.ptr.lhs.cast, %sub.ptr.rhs.cast
  %conv10 = trunc i64 %sub.ptr.sub to i32
  %field_name_length_ = getelementptr inbounds i8, ptr %this, i64 40
  store i32 %conv10, ptr %field_name_length_, align 8
  %conv12 = and i64 %sub.ptr.sub, 4294967295
  %add.i = add nuw nsw i64 %conv12, 1
  %call.i.i = tail call noalias noundef ptr @malloc(i64 noundef %add.i) #23
  store ptr %call.i.i, ptr %field_name_.i, align 8
  %cmp14 = icmp eq ptr %call.i.i, null
  br i1 %cmp14, label %return, label %if.end16

if.end16:                                         ; preds = %_ZN4FLAC8Metadata13VorbisComment5Entry17clear_field_valueEv.exit
  tail call void @llvm.memcpy.p0.p0.i64(ptr nonnull align 1 %call.i.i, ptr align 1 %2, i64 %conv12, i1 false)
  %arrayidx = getelementptr inbounds i8, ptr %call.i.i, i64 %conv12
  store i8 0, ptr %arrayidx, align 1
  %cmp27 = icmp eq i32 %3, %conv10
  br i1 %cmp27, label %if.then28, label %if.else

if.then28:                                        ; preds = %if.end16
  %field_value_length_ = getelementptr inbounds i8, ptr %this, i64 56
  store i32 0, ptr %field_value_length_, align 8
  %call.i = tail call noalias noundef dereferenceable_or_null(1) ptr @malloc(i64 noundef 1) #23
  store ptr %call.i, ptr %field_value_.i, align 8
  %cmp30 = icmp eq ptr %call.i, null
  br i1 %cmp30, label %return, label %if.end55

if.else:                                          ; preds = %if.end16
  %4 = xor i32 %conv10, -1
  %sub38 = add i32 %3, %4
  %field_value_length_39 = getelementptr inbounds i8, ptr %this, i64 56
  store i32 %sub38, ptr %field_value_length_39, align 8
  %conv41 = zext i32 %sub38 to i64
  %add.i5 = add nuw nsw i64 %conv41, 1
  %call.i.i6 = tail call noalias noundef ptr @malloc(i64 noundef %add.i5) #23
  store ptr %call.i.i6, ptr %field_value_.i, align 8
  %cmp44 = icmp eq ptr %call.i.i6, null
  br i1 %cmp44, label %return, label %if.end47

if.end47:                                         ; preds = %if.else
  %incdec.ptr = getelementptr inbounds i8, ptr %spec.select, i64 1
  tail call void @llvm.memcpy.p0.p0.i64(ptr nonnull align 1 %call.i.i6, ptr nonnull align 1 %incdec.ptr, i64 %conv41, i1 false)
  %arrayidx54 = getelementptr inbounds i8, ptr %call.i.i6, i64 %conv41
  store i8 0, ptr %arrayidx54, align 1
  br label %if.end55

if.end55:                                         ; preds = %if.then28, %if.end47
  br label %return

return:                                           ; preds = %if.else, %if.then28, %_ZN4FLAC8Metadata13VorbisComment5Entry17clear_field_valueEv.exit, %if.end55
  %.sink = phi i8 [ 1, %if.end55 ], [ 0, %_ZN4FLAC8Metadata13VorbisComment5Entry17clear_field_valueEv.exit ], [ 0, %if.then28 ], [ 0, %if.else ]
  %is_valid_56 = getelementptr inbounds i8, ptr %this, i64 8
  store i8 %.sink, ptr %is_valid_56, align 8
  ret void
}